; ModuleID = '8/653.c'
source_filename = "8/653.c"
target datalayout = "e-m:e-p270:32:32-p271:32:32-p272:64:64-i64:64-f80:128-n8:16:32:64-S128"
target triple = "x86_64-pc-linux-gnu"

@.str = private unnamed_addr constant [5 x i8] c"%d%d\00", align 1
@.str.1 = private unnamed_addr constant [3 x i8] c"%d\00", align 1
@.str.2 = private unnamed_addr constant [4 x i8] c" %d\00", align 1

; Function Attrs: noinline nounwind uwtable
define dso_local i32 @main() #0 {
  %1 = alloca i32, align 4
  store i32 0, i32* %1, align 4
  call void @hanshu()
  ret i32 0
}

; Function Attrs: noinline nounwind uwtable
define dso_local void @hanshu() #0 {
  %1 = alloca i32, align 4
  %2 = alloca i32, align 4
  %3 = alloca i32, align 4
  %4 = alloca i32, align 4
  %5 = alloca i32, align 4
  %6 = alloca i32, align 4
  %7 = alloca i32, align 4
  %8 = alloca i32, align 4
  %9 = alloca [100 x i32], align 16
  %10 = alloca [100 x i32], align 16
  %11 = alloca [200 x i32], align 16
  %12 = alloca i32, align 4
  %13 = alloca i32, align 4
  %14 = alloca i32, align 4
  %15 = alloca i32, align 4
  %16 = call i32 (i8*, ...) @__isoc99_scanf(i8* getelementptr inbounds ([5 x i8], [5 x i8]* @.str, i64 0, i64 0), i32* %1, i32* %2)
  store i32 0, i32* %3, align 4
  br label %17

17:                                               ; preds = %26, %0
  %18 = load i32, i32* %3, align 4
  %19 = load i32, i32* %1, align 4
  %20 = icmp slt i32 %18, %19
  br i1 %20, label %21, label %29

21:                                               ; preds = %17
  %22 = load i32, i32* %3, align 4
  %23 = sext i32 %22 to i64
  %24 = getelementptr inbounds [100 x i32], [100 x i32]* %9, i64 0, i64 %23
  %25 = call i32 (i8*, ...) @__isoc99_scanf(i8* getelementptr inbounds ([3 x i8], [3 x i8]* @.str.1, i64 0, i64 0), i32* %24)
  br label %26

26:                                               ; preds = %21
  %27 = load i32, i32* %3, align 4
  %28 = add nsw i32 %27, 1
  store i32 %28, i32* %3, align 4
  br label %17

29:                                               ; preds = %17
  store i32 0, i32* %4, align 4
  br label %30

30:                                               ; preds = %39, %29
  %31 = load i32, i32* %4, align 4
  %32 = load i32, i32* %2, align 4
  %33 = icmp slt i32 %31, %32
  br i1 %33, label %34, label %42

34:                                               ; preds = %30
  %35 = load i32, i32* %4, align 4
  %36 = sext i32 %35 to i64
  %37 = getelementptr inbounds [100 x i32], [100 x i32]* %10, i64 0, i64 %36
  %38 = call i32 (i8*, ...) @__isoc99_scanf(i8* getelementptr inbounds ([3 x i8], [3 x i8]* @.str.1, i64 0, i64 0), i32* %37)
  br label %39

39:                                               ; preds = %34
  %40 = load i32, i32* %4, align 4
  %41 = add nsw i32 %40, 1
  store i32 %41, i32* %4, align 4
  br label %30

42:                                               ; preds = %30
  store i32 1, i32* %5, align 4
  br label %43

43:                                               ; preds = %88, %42
  %44 = load i32, i32* %5, align 4
  %45 = load i32, i32* %2, align 4
  %46 = icmp slt i32 %44, %45
  br i1 %46, label %47, label %91

47:                                               ; preds = %43
  store i32 0, i32* %6, align 4
  br label %48

48:                                               ; preds = %84, %47
  %49 = load i32, i32* %6, align 4
  %50 = load i32, i32* %1, align 4
  %51 = load i32, i32* %5, align 4
  %52 = sub nsw i32 %50, %51
  %53 = icmp slt i32 %49, %52
  br i1 %53, label %54, label %87

54:                                               ; preds = %48
  %55 = load i32, i32* %6, align 4
  %56 = sext i32 %55 to i64
  %57 = getelementptr inbounds [100 x i32], [100 x i32]* %9, i64 0, i64 %56
  %58 = load i32, i32* %57, align 4
  %59 = load i32, i32* %6, align 4
  %60 = add nsw i32 %59, 1
  %61 = sext i32 %60 to i64
  %62 = getelementptr inbounds [100 x i32], [100 x i32]* %9, i64 0, i64 %61
  %63 = load i32, i32* %62, align 4
  %64 = icmp sgt i32 %58, %63
  br i1 %64, label %65, label %83

65:                                               ; preds = %54
  %66 = load i32, i32* %6, align 4
  %67 = sext i32 %66 to i64
  %68 = getelementptr inbounds [100 x i32], [100 x i32]* %9, i64 0, i64 %67
  %69 = load i32, i32* %68, align 4
  store i32 %69, i32* %12, align 4
  %70 = load i32, i32* %6, align 4
  %71 = add nsw i32 %70, 1
  %72 = sext i32 %71 to i64
  %73 = getelementptr inbounds [100 x i32], [100 x i32]* %9, i64 0, i64 %72
  %74 = load i32, i32* %73, align 4
  %75 = load i32, i32* %6, align 4
  %76 = sext i32 %75 to i64
  %77 = getelementptr inbounds [100 x i32], [100 x i32]* %9, i64 0, i64 %76
  store i32 %74, i32* %77, align 4
  %78 = load i32, i32* %12, align 4
  %79 = load i32, i32* %6, align 4
  %80 = add nsw i32 %79, 1
  %81 = sext i32 %80 to i64
  %82 = getelementptr inbounds [100 x i32], [100 x i32]* %9, i64 0, i64 %81
  store i32 %78, i32* %82, align 4
  br label %83

83:                                               ; preds = %65, %54
  br label %84

84:                                               ; preds = %83
  %85 = load i32, i32* %6, align 4
  %86 = add nsw i32 %85, 1
  store i32 %86, i32* %6, align 4
  br label %48

87:                                               ; preds = %48
  br label %88

88:                                               ; preds = %87
  %89 = load i32, i32* %5, align 4
  %90 = add nsw i32 %89, 1
  store i32 %90, i32* %5, align 4
  br label %43

91:                                               ; preds = %43
  store i32 1, i32* %7, align 4
  br label %92

92:                                               ; preds = %137, %91
  %93 = load i32, i32* %7, align 4
  %94 = load i32, i32* %2, align 4
  %95 = icmp slt i32 %93, %94
  br i1 %95, label %96, label %140

96:                                               ; preds = %92
  store i32 0, i32* %8, align 4
  br label %97

97:                                               ; preds = %133, %96
  %98 = load i32, i32* %8, align 4
  %99 = load i32, i32* %2, align 4
  %100 = load i32, i32* %7, align 4
  %101 = sub nsw i32 %99, %100
  %102 = icmp slt i32 %98, %101
  br i1 %102, label %103, label %136

103:                                              ; preds = %97
  %104 = load i32, i32* %8, align 4
  %105 = sext i32 %104 to i64
  %106 = getelementptr inbounds [100 x i32], [100 x i32]* %10, i64 0, i64 %105
  %107 = load i32, i32* %106, align 4
  %108 = load i32, i32* %8, align 4
  %109 = add nsw i32 %108, 1
  %110 = sext i32 %109 to i64
  %111 = getelementptr inbounds [100 x i32], [100 x i32]* %10, i64 0, i64 %110
  %112 = load i32, i32* %111, align 4
  %113 = icmp sgt i32 %107, %112
  br i1 %113, label %114, label %132

114:                                              ; preds = %103
  %115 = load i32, i32* %8, align 4
  %116 = sext i32 %115 to i64
  %117 = getelementptr inbounds [100 x i32], [100 x i32]* %10, i64 0, i64 %116
  %118 = load i32, i32* %117, align 4
  store i32 %118, i32* %12, align 4
  %119 = load i32, i32* %8, align 4
  %120 = add nsw i32 %119, 1
  %121 = sext i32 %120 to i64
  %122 = getelementptr inbounds [100 x i32], [100 x i32]* %10, i64 0, i64 %121
  %123 = load i32, i32* %122, align 4
  %124 = load i32, i32* %8, align 4
  %125 = sext i32 %124 to i64
  %126 = getelementptr inbounds [100 x i32], [100 x i32]* %10, i64 0, i64 %125
  store i32 %123, i32* %126, align 4
  %127 = load i32, i32* %12, align 4
  %128 = load i32, i32* %8, align 4
  %129 = add nsw i32 %128, 1
  %130 = sext i32 %129 to i64
  %131 = getelementptr inbounds [100 x i32], [100 x i32]* %10, i64 0, i64 %130
  store i32 %127, i32* %131, align 4
  br label %132

132:                                              ; preds = %114, %103
  br label %133

133:                                              ; preds = %132
  %134 = load i32, i32* %8, align 4
  %135 = add nsw i32 %134, 1
  store i32 %135, i32* %8, align 4
  br label %97

136:                                              ; preds = %97
  br label %137

137:                                              ; preds = %136
  %138 = load i32, i32* %7, align 4
  %139 = add nsw i32 %138, 1
  store i32 %139, i32* %7, align 4
  br label %92

140:                                              ; preds = %92
  store i32 0, i32* %14, align 4
  br label %141

141:                                              ; preds = %153, %140
  %142 = load i32, i32* %14, align 4
  %143 = load i32, i32* %1, align 4
  %144 = icmp slt i32 %142, %143
  br i1 %144, label %145, label %156

145:                                              ; preds = %141
  %146 = load i32, i32* %14, align 4
  %147 = sext i32 %146 to i64
  %148 = getelementptr inbounds [100 x i32], [100 x i32]* %9, i64 0, i64 %147
  %149 = load i32, i32* %148, align 4
  %150 = load i32, i32* %14, align 4
  %151 = sext i32 %150 to i64
  %152 = getelementptr inbounds [200 x i32], [200 x i32]* %11, i64 0, i64 %151
  store i32 %149, i32* %152, align 4
  br label %153

153:                                              ; preds = %145
  %154 = load i32, i32* %14, align 4
  %155 = add nsw i32 %154, 1
  store i32 %155, i32* %14, align 4
  br label %141

156:                                              ; preds = %141
  %157 = load i32, i32* %1, align 4
  store i32 %157, i32* %15, align 4
  br label %158

158:                                              ; preds = %174, %156
  %159 = load i32, i32* %15, align 4
  %160 = load i32, i32* %1, align 4
  %161 = load i32, i32* %2, align 4
  %162 = add nsw i32 %160, %161
  %163 = icmp slt i32 %159, %162
  br i1 %163, label %164, label %177

164:                                              ; preds = %158
  %165 = load i32, i32* %15, align 4
  %166 = load i32, i32* %1, align 4
  %167 = sub nsw i32 %165, %166
  %168 = sext i32 %167 to i64
  %169 = getelementptr inbounds [100 x i32], [100 x i32]* %10, i64 0, i64 %168
  %170 = load i32, i32* %169, align 4
  %171 = load i32, i32* %15, align 4
  %172 = sext i32 %171 to i64
  %173 = getelementptr inbounds [200 x i32], [200 x i32]* %11, i64 0, i64 %172
  store i32 %170, i32* %173, align 4
  br label %174

174:                                              ; preds = %164
  %175 = load i32, i32* %15, align 4
  %176 = add nsw i32 %175, 1
  store i32 %176, i32* %15, align 4
  br label %158

177:                                              ; preds = %158
  %178 = getelementptr inbounds [200 x i32], [200 x i32]* %11, i64 0, i64 0
  %179 = load i32, i32* %178, align 16
  %180 = call i32 (i8*, ...) @printf(i8* getelementptr inbounds ([3 x i8], [3 x i8]* @.str.1, i64 0, i64 0), i32 %179)
  store i32 1, i32* %13, align 4
  br label %181

181:                                              ; preds = %193, %177
  %182 = load i32, i32* %13, align 4
  %183 = load i32, i32* %2, align 4
  %184 = load i32, i32* %1, align 4
  %185 = add nsw i32 %183, %184
  %186 = icmp slt i32 %182, %185
  br i1 %186, label %187, label %196

187:                                              ; preds = %181
  %188 = load i32, i32* %13, align 4
  %189 = sext i32 %188 to i64
  %190 = getelementptr inbounds [200 x i32], [200 x i32]* %11, i64 0, i64 %189
  %191 = load i32, i32* %190, align 4
  %192 = call i32 (i8*, ...) @printf(i8* getelementptr inbounds ([4 x i8], [4 x i8]* @.str.2, i64 0, i64 0), i32 %191)
  br label %193

193:                                              ; preds = %187
  %194 = load i32, i32* %13, align 4
  %195 = add nsw i32 %194, 1
  store i32 %195, i32* %13, align 4
  br label %181

196:                                              ; preds = %181
  ret void
}

declare dso_local i32 @__isoc99_scanf(i8*, ...) #1

declare dso_local i32 @printf(i8*, ...) #1


!llvm.module.flags = !{!0}
!llvm.ident = !{!1}

!0 = !{i32 1, !"wchar_size", i32 4}
!1 = !{!"clang version 10.0.0-4ubuntu1 "}
